target datalayout = "e-m:e-p270:32:32-p271:32:32-p272:64:64-i64:64-i128:128-f80:128-n8:16:32:64-S128"
target triple = "x86_64-pc-linux-gnu"

%"struct.boost::json::detail::ryu::detail::floating_decimal_64" = type { i64, i32 }

@.str.55 = private unnamed_addr constant [5 x i8] c"null\00", align 1
@.str.107 = private unnamed_addr constant [4 x i8] c"NaN\00", align 1
@.str.108 = private unnamed_addr constant [9 x i8] c"Infinity\00", align 1
@.str.109 = private unnamed_addr constant [4 x i8] c"0E0\00", align 1
@.str.110 = private unnamed_addr constant [8 x i8] c"1e99999\00", align 1

; Function Attrs: inlinehint mustprogress nounwind uwtable
define linkonce_odr hidden noundef i64 @_ZN5boost4json6detail3ryu6detail5div10Em(i64 noundef %0) #1 comdat {
  %2 = alloca i64, align 8
  store i64 %0, ptr %2, align 8, !tbaa !16
  %3 = load i64, ptr %2, align 8, !tbaa !16
  %4 = udiv i64 %3, 10
  ret i64 %4
}

; Function Attrs: inlinehint mustprogress nounwind uwtable
define internal noundef zeroext i1 @_ZN5boost4json6detail3ryu6detailL13d2d_small_intEmjPNS3_19floating_decimal_64E(i64 noundef %0, i32 noundef %1, ptr noundef %2) #1 {
  %4 = alloca i1, align 1
  %5 = alloca i64, align 8
  %6 = alloca i32, align 4
  %7 = alloca ptr, align 8
  %8 = alloca i64, align 8
  %9 = alloca i32, align 4
  %10 = alloca i32, align 4
  %11 = alloca i64, align 8
  %12 = alloca i64, align 8
  store i64 %0, ptr %5, align 8, !tbaa !16
  store i32 %1, ptr %6, align 4, !tbaa !7
  store ptr %2, ptr %7, align 8, !tbaa !3
  call void @llvm.lifetime.start.p0(i64 8, ptr %8) #10
  %13 = load i64, ptr %5, align 8, !tbaa !16
  %14 = or i64 4503599627370496, %13
  store i64 %14, ptr %8, align 8, !tbaa !16
  call void @llvm.lifetime.start.p0(i64 4, ptr %9) #10
  %15 = load i32, ptr %6, align 4, !tbaa !7
  %16 = sub nsw i32 %15, 1023
  %17 = sub nsw i32 %16, 52
  store i32 %17, ptr %9, align 4, !tbaa !7
  %18 = load i32, ptr %9, align 4, !tbaa !7
  %19 = icmp sgt i32 %18, 0
  br i1 %19, label %20, label %21

20:                                               ; preds = %3
  store i1 false, ptr %4, align 1
  store i32 1, ptr %10, align 4
  br label %48

21:                                               ; preds = %3
  %22 = load i32, ptr %9, align 4, !tbaa !7
  %23 = icmp slt i32 %22, -52
  br i1 %23, label %24, label %25

24:                                               ; preds = %21
  store i1 false, ptr %4, align 1
  store i32 1, ptr %10, align 4
  br label %48

25:                                               ; preds = %21
  call void @llvm.lifetime.start.p0(i64 8, ptr %11) #10
  %26 = load i32, ptr %9, align 4, !tbaa !7
  %27 = sub nsw i32 0, %26
  %28 = zext i32 %27 to i64
  %29 = shl i64 1, %28
  %30 = sub i64 %29, 1
  store i64 %30, ptr %11, align 8, !tbaa !16
  call void @llvm.lifetime.start.p0(i64 8, ptr %12) #10
  %31 = load i64, ptr %8, align 8, !tbaa !16
  %32 = load i64, ptr %11, align 8, !tbaa !16
  %33 = and i64 %31, %32
  store i64 %33, ptr %12, align 8, !tbaa !16
  %34 = load i64, ptr %12, align 8, !tbaa !16
  %35 = icmp ne i64 %34, 0
  br i1 %35, label %36, label %37

36:                                               ; preds = %25
  store i1 false, ptr %4, align 1
  store i32 1, ptr %10, align 4
  br label %47

37:                                               ; preds = %25
  %38 = load i64, ptr %8, align 8, !tbaa !16
  %39 = load i32, ptr %9, align 4, !tbaa !7
  %40 = sub nsw i32 0, %39
  %41 = zext i32 %40 to i64
  %42 = lshr i64 %38, %41
  %43 = load ptr, ptr %7, align 8, !tbaa !3
  %44 = getelementptr inbounds nuw %"struct.boost::json::detail::ryu::detail::floating_decimal_64", ptr %43, i32 0, i32 0
  store i64 %42, ptr %44, align 8, !tbaa !264
  %45 = load ptr, ptr %7, align 8, !tbaa !3
  %46 = getelementptr inbounds nuw %"struct.boost::json::detail::ryu::detail::floating_decimal_64", ptr %45, i32 0, i32 1
  store i32 0, ptr %46, align 8, !tbaa !266
  store i1 true, ptr %4, align 1
  store i32 1, ptr %10, align 4
  br label %47

47:                                               ; preds = %37, %36
  call void @llvm.lifetime.end.p0(i64 8, ptr %12) #10
  call void @llvm.lifetime.end.p0(i64 8, ptr %11) #10
  br label %48

48:                                               ; preds = %47, %24, %20
  call void @llvm.lifetime.end.p0(i64 4, ptr %9) #10
  call void @llvm.lifetime.end.p0(i64 8, ptr %8) #10
  %49 = load i1, ptr %4, align 1
  ret i1 %49
}

; Function Attrs: inlinehint mustprogress nounwind uwtable
define linkonce_odr hidden noundef i32 @_ZN5boost4json6detail3ryu6detail27copy_special_str_conformingEPcbbb(ptr noundef %0, i1 noundef zeroext %1, i1 noundef zeroext %2, i1 noundef zeroext %3) #1 comdat {
  %5 = alloca i32, align 4
  %6 = alloca ptr, align 8
  %7 = alloca i8, align 1
  %8 = alloca i8, align 1
  %9 = alloca i8, align 1
  store ptr %0, ptr %6, align 8, !tbaa !3
  %10 = zext i1 %1 to i8
  store i8 %10, ptr %7, align 1, !tbaa !159
  %11 = zext i1 %2 to i8
  store i8 %11, ptr %8, align 1, !tbaa !159
  %12 = zext i1 %3 to i8
  store i8 %12, ptr %9, align 1, !tbaa !159
  %13 = load i8, ptr %9, align 1, !tbaa !159, !range !165, !noundef !166
  %14 = trunc i8 %13 to i1
  br i1 %14, label %15, label %17

15:                                               ; preds = %4
  %16 = load ptr, ptr %6, align 8, !tbaa !3
  call void @llvm.memcpy.p0.p0.i64(ptr align 1 %16, ptr align 1 @.str.55, i64 4, i1 false)
  store i32 4, ptr %5, align 4
  br label %48

17:                                               ; preds = %4
  %18 = load i8, ptr %7, align 1, !tbaa !159, !range !165, !noundef !166
  %19 = trunc i8 %18 to i1
  br i1 %19, label %20, label %23

20:                                               ; preds = %17
  %21 = load ptr, ptr %6, align 8, !tbaa !3
  %22 = getelementptr inbounds i8, ptr %21, i64 0
  store i8 45, ptr %22, align 1, !tbaa !56
  br label %23

23:                                               ; preds = %20, %17
  %24 = load i8, ptr %8, align 1, !tbaa !159, !range !165, !noundef !166
  %25 = trunc i8 %24 to i1
  br i1 %25, label %26, label %37

26:                                               ; preds = %23
  %27 = load ptr, ptr %6, align 8, !tbaa !3
  %28 = load i8, ptr %7, align 1, !tbaa !159, !range !165, !noundef !166
  %29 = trunc i8 %28 to i1
  %30 = zext i1 %29 to i32
  %31 = sext i32 %30 to i64
  %32 = getelementptr inbounds i8, ptr %27, i64 %31
  call void @llvm.memcpy.p0.p0.i64(ptr align 1 %32, ptr align 1 @.str.110, i64 7, i1 false)
  %33 = load i8, ptr %7, align 1, !tbaa !159, !range !165, !noundef !166
  %34 = trunc i8 %33 to i1
  %35 = zext i1 %34 to i32
  %36 = add nsw i32 %35, 7
  store i32 %36, ptr %5, align 4
  br label %48

37:                                               ; preds = %23
  %38 = load ptr, ptr %6, align 8, !tbaa !3
  %39 = load i8, ptr %7, align 1, !tbaa !159, !range !165, !noundef !166
  %40 = trunc i8 %39 to i1
  %41 = zext i1 %40 to i32
  %42 = sext i32 %41 to i64
  %43 = getelementptr inbounds i8, ptr %38, i64 %42
  call void @llvm.memcpy.p0.p0.i64(ptr align 1 %43, ptr align 1 @.str.109, i64 3, i1 false)
  %44 = load i8, ptr %7, align 1, !tbaa !159, !range !165, !noundef !166
  %45 = trunc i8 %44 to i1
  %46 = zext i1 %45 to i32
  %47 = add nsw i32 %46, 3
  store i32 %47, ptr %5, align 4
  br label %48

48:                                               ; preds = %37, %26, %15
  %49 = load i32, ptr %5, align 4
  ret i32 %49
}

; Function Attrs: inlinehint mustprogress nounwind uwtable
define linkonce_odr hidden noundef i32 @_ZN5boost4json6detail3ryu6detail16copy_special_strEPcbbb(ptr noundef %0, i1 noundef zeroext %1, i1 noundef zeroext %2, i1 noundef zeroext %3) #1 comdat {
  %5 = alloca i32, align 4
  %6 = alloca ptr, align 8
  %7 = alloca i8, align 1
  %8 = alloca i8, align 1
  %9 = alloca i8, align 1
  store ptr %0, ptr %6, align 8, !tbaa !3
  %10 = zext i1 %1 to i8
  store i8 %10, ptr %7, align 1, !tbaa !159
  %11 = zext i1 %2 to i8
  store i8 %11, ptr %8, align 1, !tbaa !159
  %12 = zext i1 %3 to i8
  store i8 %12, ptr %9, align 1, !tbaa !159
  %13 = load i8, ptr %9, align 1, !tbaa !159, !range !165, !noundef !166
  %14 = trunc i8 %13 to i1
  br i1 %14, label %15, label %17

15:                                               ; preds = %4
  %16 = load ptr, ptr %6, align 8, !tbaa !3
  call void @llvm.memcpy.p0.p0.i64(ptr align 1 %16, ptr align 1 @.str.107, i64 3, i1 false)
  store i32 3, ptr %5, align 4
  br label %48

17:                                               ; preds = %4
  %18 = load i8, ptr %7, align 1, !tbaa !159, !range !165, !noundef !166
  %19 = trunc i8 %18 to i1
  br i1 %19, label %20, label %23

20:                                               ; preds = %17
  %21 = load ptr, ptr %6, align 8, !tbaa !3
  %22 = getelementptr inbounds i8, ptr %21, i64 0
  store i8 45, ptr %22, align 1, !tbaa !56
  br label %23

23:                                               ; preds = %20, %17
  %24 = load i8, ptr %8, align 1, !tbaa !159, !range !165, !noundef !166
  %25 = trunc i8 %24 to i1
  br i1 %25, label %26, label %37

26:                                               ; preds = %23
  %27 = load ptr, ptr %6, align 8, !tbaa !3
  %28 = load i8, ptr %7, align 1, !tbaa !159, !range !165, !noundef !166
  %29 = trunc i8 %28 to i1
  %30 = zext i1 %29 to i32
  %31 = sext i32 %30 to i64
  %32 = getelementptr inbounds i8, ptr %27, i64 %31
  call void @llvm.memcpy.p0.p0.i64(ptr align 1 %32, ptr align 1 @.str.108, i64 8, i1 false)
  %33 = load i8, ptr %7, align 1, !tbaa !159, !range !165, !noundef !166
  %34 = trunc i8 %33 to i1
  %35 = zext i1 %34 to i32
  %36 = add nsw i32 %35, 8
  store i32 %36, ptr %5, align 4
  br label %48

37:                                               ; preds = %23
  %38 = load ptr, ptr %6, align 8, !tbaa !3
  %39 = load i8, ptr %7, align 1, !tbaa !159, !range !165, !noundef !166
  %40 = trunc i8 %39 to i1
  %41 = zext i1 %40 to i32
  %42 = sext i32 %41 to i64
  %43 = getelementptr inbounds i8, ptr %38, i64 %42
  call void @llvm.memcpy.p0.p0.i64(ptr align 1 %43, ptr align 1 @.str.109, i64 3, i1 false)
  %44 = load i8, ptr %7, align 1, !tbaa !159, !range !165, !noundef !166
  %45 = trunc i8 %44 to i1
  %46 = zext i1 %45 to i32
  %47 = add nsw i32 %46, 3
  store i32 %47, ptr %5, align 4
  br label %48

48:                                               ; preds = %37, %26, %15
  %49 = load i32, ptr %5, align 4
  ret i32 %49
}

; Function Attrs: inlinehint mustprogress nounwind uwtable
define linkonce_odr hidden noundef i64 @_ZN5boost4json6detail3ryu6detail14double_to_bitsEd(double noundef %0) #1 comdat {
  %2 = alloca double, align 8
  %3 = alloca i64, align 8
  store double %0, ptr %2, align 8, !tbaa !212
  call void @llvm.lifetime.start.p0(i64 8, ptr %3) #10
  store i64 0, ptr %3, align 8, !tbaa !16
  call void @llvm.memcpy.p0.p0.i64(ptr align 8 %3, ptr align 8 %2, i64 8, i1 false)
  %4 = load i64, ptr %3, align 8, !tbaa !16
  call void @llvm.lifetime.end.p0(i64 8, ptr %3) #10
  ret i64 %4
}

; Function Attrs: mustprogress nounwind uwtable
define noundef i32 @_ZN5boost4json6detail3ryu14d2s_buffered_nEdPcb(double noundef %0, ptr noundef %1, i1 noundef zeroext %2) #2 personality ptr @__gxx_personality_v0 {
  %4 = alloca i32, align 4
  %5 = alloca double, align 8
  %6 = alloca ptr, align 8
  %7 = alloca i8, align 1
  %8 = alloca i64, align 8
  %9 = alloca i8, align 1
  %10 = alloca i64, align 8
  %11 = alloca i32, align 4
  %12 = alloca i32, align 4
  %13 = alloca %"struct.boost::json::detail::ryu::detail::floating_decimal_64", align 8
  %14 = alloca i8, align 1
  %15 = alloca i64, align 8
  %16 = alloca i32, align 4
  %17 = alloca %"struct.boost::json::detail::ryu::detail::floating_decimal_64", align 8
  %18 = alloca %"struct.boost::json::detail::ryu::detail::floating_decimal_64", align 8
  store double %0, ptr %5, align 8, !tbaa !212
  store ptr %1, ptr %6, align 8, !tbaa !3
  %19 = zext i1 %2 to i8
  store i8 %19, ptr %7, align 1, !tbaa !159
  call void @llvm.lifetime.start.p0(i64 8, ptr %8) #10
  %20 = load double, ptr %5, align 8, !tbaa !212
  %21 = invoke noundef i64 @_ZN5boost4json6detail3ryu6detail14double_to_bitsEd(double noundef %20)
          to label %22 unwind label %120

22:                                               ; preds = %3
  store i64 %21, ptr %8, align 8, !tbaa !16
  call void @llvm.lifetime.start.p0(i64 1, ptr %9) #10
  %23 = load i64, ptr %8, align 8, !tbaa !16
  %24 = lshr i64 %23, 63
  %25 = and i64 %24, 1
  %26 = icmp ne i64 %25, 0
  %27 = zext i1 %26 to i8
  store i8 %27, ptr %9, align 1, !tbaa !159
  call void @llvm.lifetime.start.p0(i64 8, ptr %10) #10
  %28 = load i64, ptr %8, align 8, !tbaa !16
  %29 = and i64 %28, 4503599627370495
  store i64 %29, ptr %10, align 8, !tbaa !16
  call void @llvm.lifetime.start.p0(i64 4, ptr %11) #10
  %30 = load i64, ptr %8, align 8, !tbaa !16
  %31 = lshr i64 %30, 52
  %32 = and i64 %31, 2047
  %33 = trunc i64 %32 to i32
  store i32 %33, ptr %11, align 4, !tbaa !7
  %34 = load i32, ptr %11, align 4, !tbaa !7
  %35 = icmp eq i32 %34, 2047
  br i1 %35, label %42, label %36

36:                                               ; preds = %22
  %37 = load i32, ptr %11, align 4, !tbaa !7
  %38 = icmp eq i32 %37, 0
  br i1 %38, label %39, label %65

39:                                               ; preds = %36
  %40 = load i64, ptr %10, align 8, !tbaa !16
  %41 = icmp eq i64 %40, 0
  br i1 %41, label %42, label %65

42:                                               ; preds = %39, %22
  %43 = load i8, ptr %7, align 1, !tbaa !159, !range !165, !noundef !166
  %44 = trunc i8 %43 to i1
  br i1 %44, label %45, label %55

45:                                               ; preds = %42
  %46 = load ptr, ptr %6, align 8, !tbaa !3
  %47 = load i8, ptr %9, align 1, !tbaa !159, !range !165, !noundef !166
  %48 = trunc i8 %47 to i1
  %49 = load i32, ptr %11, align 4, !tbaa !7
  %50 = icmp ne i32 %49, 0
  %51 = load i64, ptr %10, align 8, !tbaa !16
  %52 = icmp ne i64 %51, 0
  %53 = invoke noundef i32 @_ZN5boost4json6detail3ryu6detail16copy_special_strEPcbbb(ptr noundef %46, i1 noundef zeroext %48, i1 noundef zeroext %50, i1 noundef zeroext %52)
          to label %54 unwind label %120

54:                                               ; preds = %45
  store i32 %53, ptr %4, align 4
  store i32 1, ptr %12, align 4
  br label %118

55:                                               ; preds = %42
  %56 = load ptr, ptr %6, align 8, !tbaa !3
  %57 = load i8, ptr %9, align 1, !tbaa !159, !range !165, !noundef !166
  %58 = trunc i8 %57 to i1
  %59 = load i32, ptr %11, align 4, !tbaa !7
  %60 = icmp ne i32 %59, 0
  %61 = load i64, ptr %10, align 8, !tbaa !16
  %62 = icmp ne i64 %61, 0
  %63 = invoke noundef i32 @_ZN5boost4json6detail3ryu6detail27copy_special_str_conformingEPcbbb(ptr noundef %56, i1 noundef zeroext %58, i1 noundef zeroext %60, i1 noundef zeroext %62)
          to label %64 unwind label %120

64:                                               ; preds = %55
  store i32 %63, ptr %4, align 4
  store i32 1, ptr %12, align 4
  br label %118

65:                                               ; preds = %39, %36
  call void @llvm.lifetime.start.p0(i64 16, ptr %13) #10
  call void @llvm.lifetime.start.p0(i64 1, ptr %14) #10
  %66 = load i64, ptr %10, align 8, !tbaa !16
  %67 = load i32, ptr %11, align 4, !tbaa !7
  %68 = invoke noundef zeroext i1 @_ZN5boost4json6detail3ryu6detailL13d2d_small_intEmjPNS3_19floating_decimal_64E(i64 noundef %66, i32 noundef %67, ptr noundef %13)
          to label %69 unwind label %120

69:                                               ; preds = %65
  %70 = zext i1 %68 to i8
  store i8 %70, ptr %14, align 1, !tbaa !159
  %71 = load i8, ptr %14, align 1, !tbaa !159, !range !165, !noundef !166
  %72 = trunc i8 %71 to i1
  br i1 %72, label %73, label %99

73:                                               ; preds = %69
  br label %74

74:                                               ; preds = %97, %73
  call void @llvm.lifetime.start.p0(i64 8, ptr %15) #10
  %75 = getelementptr inbounds nuw %"struct.boost::json::detail::ryu::detail::floating_decimal_64", ptr %13, i32 0, i32 0
  %76 = load i64, ptr %75, align 8, !tbaa !264
  %77 = invoke noundef i64 @_ZN5boost4json6detail3ryu6detail5div10Em(i64 noundef %76)
          to label %78 unwind label %120

78:                                               ; preds = %74
  store i64 %77, ptr %15, align 8, !tbaa !16
  call void @llvm.lifetime.start.p0(i64 4, ptr %16) #10
  %79 = getelementptr inbounds nuw %"struct.boost::json::detail::ryu::detail::floating_decimal_64", ptr %13, i32 0, i32 0
  %80 = load i64, ptr %79, align 8, !tbaa !264
  %81 = trunc i64 %80 to i32
  %82 = load i64, ptr %15, align 8, !tbaa !16
  %83 = trunc i64 %82 to i32
  %84 = mul i32 10, %83
  %85 = sub i32 %81, %84
  store i32 %85, ptr %16, align 4, !tbaa !7
  %86 = load i32, ptr %16, align 4, !tbaa !7
  %87 = icmp ne i32 %86, 0
  br i1 %87, label %88, label %89

88:                                               ; preds = %78
  store i32 2, ptr %12, align 4
  br label %95

89:                                               ; preds = %78
  %90 = load i64, ptr %15, align 8, !tbaa !16
  %91 = getelementptr inbounds nuw %"struct.boost::json::detail::ryu::detail::floating_decimal_64", ptr %13, i32 0, i32 0
  store i64 %90, ptr %91, align 8, !tbaa !264
  %92 = getelementptr inbounds nuw %"struct.boost::json::detail::ryu::detail::floating_decimal_64", ptr %13, i32 0, i32 1
  %93 = load i32, ptr %92, align 8, !tbaa !266
  %94 = add nsw i32 %93, 1
  store i32 %94, ptr %92, align 8, !tbaa !266
  store i32 0, ptr %12, align 4
  br label %95

95:                                               ; preds = %89, %88
  call void @llvm.lifetime.end.p0(i64 4, ptr %16) #10
  call void @llvm.lifetime.end.p0(i64 8, ptr %15) #10
  %96 = load i32, ptr %12, align 4
  switch i32 %96, label %123 [
    i32 0, label %97
    i32 2, label %98
  ]

97:                                               ; preds = %95
  br label %74, !llvm.loop !267

98:                                               ; preds = %95
  br label %108

99:                                               ; preds = %69
  call void @llvm.lifetime.start.p0(i64 16, ptr %17) #10
  %100 = load i64, ptr %10, align 8, !tbaa !16
  %101 = load i32, ptr %11, align 4, !tbaa !7
  %102 = invoke { i64, i32 } @_ZN5boost4json6detail3ryu6detail3d2dEmj(i64 noundef %100, i32 noundef %101)
          to label %103 unwind label %120

103:                                              ; preds = %99
  %104 = getelementptr inbounds nuw { i64, i32 }, ptr %17, i32 0, i32 0
  %105 = extractvalue { i64, i32 } %102, 0
  store i64 %105, ptr %104, align 8
  %106 = getelementptr inbounds nuw { i64, i32 }, ptr %17, i32 0, i32 1
  %107 = extractvalue { i64, i32 } %102, 1
  store i32 %107, ptr %106, align 8
  call void @llvm.memcpy.p0.p0.i64(ptr align 8 %13, ptr align 8 %17, i64 16, i1 false), !tbaa.struct !268
  call void @llvm.lifetime.end.p0(i64 16, ptr %17) #10
  br label %108

108:                                              ; preds = %103, %98
  call void @llvm.memcpy.p0.p0.i64(ptr align 8 %18, ptr align 8 %13, i64 16, i1 false), !tbaa.struct !268
  %109 = load i8, ptr %9, align 1, !tbaa !159, !range !165, !noundef !166
  %110 = trunc i8 %109 to i1
  %111 = load ptr, ptr %6, align 8, !tbaa !3
  %112 = getelementptr inbounds nuw { i64, i32 }, ptr %18, i32 0, i32 0
  %113 = load i64, ptr %112, align 8
  %114 = getelementptr inbounds nuw { i64, i32 }, ptr %18, i32 0, i32 1
  %115 = load i32, ptr %114, align 8
  %116 = invoke noundef i32 @_ZN5boost4json6detail3ryu6detail8to_charsENS3_19floating_decimal_64EbPc(i64 %113, i32 %115, i1 noundef zeroext %110, ptr noundef %111)
          to label %117 unwind label %120

117:                                              ; preds = %108
  store i32 %116, ptr %4, align 4
  store i32 1, ptr %12, align 4
  call void @llvm.lifetime.end.p0(i64 1, ptr %14) #10
  call void @llvm.lifetime.end.p0(i64 16, ptr %13) #10
  br label %118

118:                                              ; preds = %117, %64, %54
  call void @llvm.lifetime.end.p0(i64 4, ptr %11) #10
  call void @llvm.lifetime.end.p0(i64 8, ptr %10) #10
  call void @llvm.lifetime.end.p0(i64 1, ptr %9) #10
  call void @llvm.lifetime.end.p0(i64 8, ptr %8) #10
  %119 = load i32, ptr %4, align 4
  ret i32 %119

120:                                              ; preds = %108, %99, %74, %65, %55, %45, %3
  %121 = landingpad { ptr, i32 }
          catch ptr null
  %122 = extractvalue { ptr, i32 } %121, 0
  call void @__clang_call_terminate(ptr %122) #34
  unreachable

123:                                              ; preds = %95
  unreachable
}