; Function Attrs: mustprogress nounwind uwtable
define noundef i32 @_ZN5boost4json6detail3ryu14d2s_buffered_nEdPcb(double noundef %0, ptr noundef %1, i1 noundef zeroext %2) local_unnamed_addr #7 personality ptr @__gxx_personality_v0 {
  %4 = bitcast double %0 to i64
  %5 = icmp slt i64 %4, 0
  %6 = and i64 %4, 4503599627370495
  %7 = lshr i64 %4, 52
  %8 = trunc nuw nsw i64 %7 to i32
  %9 = and i32 %8, 2047
  %10 = icmp eq i32 %9, 2047
  br i1 %10, label %14, label %11

11:                                               ; preds = %3
  %12 = icmp eq i32 %9, 0
  %13 = icmp eq i64 %6, 0
  %or.cond = and i1 %13, %12
  br i1 %or.cond, label %.thread, label %33

14:                                               ; preds = %3
  %.not46 = icmp eq i64 %6, 0
  br i1 %2, label %15, label %24

.thread:                                          ; preds = %11
  br i1 %2, label %.thread36, label %.thread37

15:                                               ; preds = %14
  br i1 %.not46, label %.thread36, label %16

16:                                               ; preds = %15
  tail call void @llvm.memcpy.p0.p0.i64(ptr noundef nonnull align 1 dereferenceable(3) %1, ptr noundef nonnull align 1 dereferenceable(3) @.str.107, i64 3, i1 false)
  br label %_ZN5boost4json6detail3ryu6detail16copy_special_strEPcbbb.exit

.thread36:                                        ; preds = %.thread, %15
  br i1 %5, label %17, label %18

17:                                               ; preds = %.thread36
  store i8 45, ptr %1, align 1, !tbaa !15
  br label %18

18:                                               ; preds = %17, %.thread36
  %.lobit47 = lshr i64 %4, 63
  %19 = getelementptr inbounds i8, ptr %1, i64 %.lobit47
  br i1 %10, label %20, label %22

20:                                               ; preds = %18
  store i64 8751735898823355977, ptr %19, align 1
  %21 = select i1 %5, i32 9, i32 8
  br label %_ZN5boost4json6detail3ryu6detail16copy_special_strEPcbbb.exit

22:                                               ; preds = %18
  tail call void @llvm.memcpy.p0.p0.i64(ptr noundef nonnull align 1 dereferenceable(3) %19, ptr noundef nonnull align 1 dereferenceable(3) @.str.109, i64 3, i1 false)
  %23 = select i1 %5, i32 4, i32 3
  br label %_ZN5boost4json6detail3ryu6detail16copy_special_strEPcbbb.exit

24:                                               ; preds = %14
  br i1 %.not46, label %.thread37, label %25

25:                                               ; preds = %24
  store i32 1819047278, ptr %1, align 1
  br label %_ZN5boost4json6detail3ryu6detail16copy_special_strEPcbbb.exit

.thread37:                                        ; preds = %.thread, %24
  br i1 %5, label %26, label %27

26:                                               ; preds = %.thread37
  store i8 45, ptr %1, align 1, !tbaa !15
  br label %27

27:                                               ; preds = %26, %.thread37
  %.lobit = lshr i64 %4, 63
  %28 = getelementptr inbounds i8, ptr %1, i64 %.lobit
  br i1 %10, label %29, label %31

29:                                               ; preds = %27
  tail call void @llvm.memcpy.p0.p0.i64(ptr noundef nonnull align 1 dereferenceable(7) %28, ptr noundef nonnull align 1 dereferenceable(7) @.str.110, i64 7, i1 false)
  %30 = select i1 %5, i32 8, i32 7
  br label %_ZN5boost4json6detail3ryu6detail16copy_special_strEPcbbb.exit

31:                                               ; preds = %27
  tail call void @llvm.memcpy.p0.p0.i64(ptr noundef nonnull align 1 dereferenceable(3) %28, ptr noundef nonnull align 1 dereferenceable(3) @.str.109, i64 3, i1 false)
  %32 = select i1 %5, i32 4, i32 3
  br label %_ZN5boost4json6detail3ryu6detail16copy_special_strEPcbbb.exit

33:                                               ; preds = %11
  %34 = or disjoint i64 %6, 4503599627370496
  %35 = add nsw i32 %9, -1076
  %or.cond.i = icmp ult i32 %35, -53
  br i1 %or.cond.i, label %48, label %36

36:                                               ; preds = %33
  %37 = sub nuw nsw i32 1075, %9
  %38 = zext nneg i32 %37 to i64
  %notmask.i = shl nsw i64 -1, %38
  %39 = xor i64 %notmask.i, -1
  %40 = and i64 %34, %39
  %.not.i = icmp eq i64 %40, 0
  br i1 %.not.i, label %_ZN5boost4json6detail3ryu6detailL13d2d_small_intEmjPNS3_19floating_decimal_64E.exit, label %48

_ZN5boost4json6detail3ryu6detailL13d2d_small_intEmjPNS3_19floating_decimal_64E.exit: ; preds = %36
  %41 = lshr i64 %34, %38
  br label %42

42:                                               ; preds = %42, %_ZN5boost4json6detail3ryu6detailL13d2d_small_intEmjPNS3_19floating_decimal_64E.exit
  %.sroa.8.0 = phi i32 [ 0, %_ZN5boost4json6detail3ryu6detailL13d2d_small_intEmjPNS3_19floating_decimal_64E.exit ], [ %47, %42 ]
  %.sroa.0.0 = phi i64 [ %41, %_ZN5boost4json6detail3ryu6detailL13d2d_small_intEmjPNS3_19floating_decimal_64E.exit ], [ %43, %42 ]
  %43 = udiv i64 %.sroa.0.0, 10
  %44 = trunc i64 %.sroa.0.0 to i32
  %45 = trunc i64 %43 to i32
  %.neg = mul i32 %45, -10
  %46 = sub i32 0, %44
  %.not = icmp eq i32 %.neg, %46
  %47 = add nuw nsw i32 %.sroa.8.0, 1
  br i1 %.not, label %42, label %.thread40

48:                                               ; preds = %33, %36
  %49 = invoke { i64, i32 } @_ZN5boost4json6detail3ryu6detail3d2dEmj(i64 noundef %6, i32 noundef %9)
          to label %50 unwind label %54

50:                                               ; preds = %48
  %51 = extractvalue { i64, i32 } %49, 0
  %52 = extractvalue { i64, i32 } %49, 1
  br label %.thread40

.thread40:                                        ; preds = %42, %50
  %.sroa.8.2 = phi i32 [ %52, %50 ], [ %.sroa.8.0, %42 ]
  %.sroa.0.2 = phi i64 [ %51, %50 ], [ %.sroa.0.0, %42 ]
  %53 = invoke noundef i32 @_ZN5boost4json6detail3ryu6detail8to_charsENS3_19floating_decimal_64EbPc(i64 %.sroa.0.2, i32 %.sroa.8.2, i1 noundef zeroext %5, ptr noundef %1)
          to label %_ZN5boost4json6detail3ryu6detail16copy_special_strEPcbbb.exit unwind label %54

_ZN5boost4json6detail3ryu6detail16copy_special_strEPcbbb.exit: ; preds = %.thread40, %31, %29, %25, %22, %20, %16
  %.0 = phi i32 [ 3, %16 ], [ %21, %20 ], [ %23, %22 ], [ 4, %25 ], [ %30, %29 ], [ %32, %31 ], [ %53, %.thread40 ]
  ret i32 %.0

54:                                               ; preds = %.thread40, %48
  %55 = landingpad { ptr, i32 }
          catch ptr null
  %56 = extractvalue { ptr, i32 } %55, 0
  tail call void @__clang_call_terminate(ptr %56) #50
  unreachable
}